target datalayout = "e-m:e-p270:32:32-p271:32:32-p272:64:64-i64:64-i128:128-f80:128-n8:16:32:64-S128"
target triple = "x86_64-pc-linux-gnu"

%struct.ZSTD_seqSymbol = type { i16, i8, i8, i32 }
%struct.ZSTD_seqSymbol_header = type { i32, i32 }

; Function Attrs: nounwind uwtable
define internal i32 @ERR_isError(i64 noundef %0) #0 {
  %2 = alloca i64, align 8
  store i64 %0, ptr %2, align 8, !tbaa !7
  %3 = load i64, ptr %2, align 8, !tbaa !7
  %4 = icmp ugt i64 %3, -120
  %5 = zext i1 %4 to i32
  ret i32 %5
}

; Function Attrs: nounwind uwtable
define internal void @ZSTD_buildSeqTable_rle(ptr noundef %0, i32 noundef %1, i8 noundef zeroext %2) #0 {
  %4 = alloca ptr, align 8
  %5 = alloca i32, align 4
  %6 = alloca i8, align 1
  %7 = alloca ptr, align 8
  %8 = alloca ptr, align 8
  %9 = alloca ptr, align 8
  store ptr %0, ptr %4, align 8, !tbaa !3
  store i32 %1, ptr %5, align 4, !tbaa !9
  store i8 %2, ptr %6, align 1, !tbaa !15
  call void @llvm.lifetime.start.p0(i64 8, ptr %7) #14
  %10 = load ptr, ptr %4, align 8, !tbaa !3
  store ptr %10, ptr %7, align 8, !tbaa !3
  call void @llvm.lifetime.start.p0(i64 8, ptr %8) #14
  %11 = load ptr, ptr %7, align 8, !tbaa !3
  store ptr %11, ptr %8, align 8, !tbaa !3
  call void @llvm.lifetime.start.p0(i64 8, ptr %9) #14
  %12 = load ptr, ptr %4, align 8, !tbaa !3
  %13 = getelementptr inbounds %struct.ZSTD_seqSymbol, ptr %12, i64 1
  store ptr %13, ptr %9, align 8, !tbaa !3
  %14 = load ptr, ptr %8, align 8, !tbaa !3
  %15 = getelementptr inbounds nuw %struct.ZSTD_seqSymbol_header, ptr %14, i32 0, i32 1
  store i32 0, ptr %15, align 4, !tbaa !49
  %16 = load ptr, ptr %8, align 8, !tbaa !3
  %17 = getelementptr inbounds nuw %struct.ZSTD_seqSymbol_header, ptr %16, i32 0, i32 0
  store i32 0, ptr %17, align 4, !tbaa !51
  %18 = load ptr, ptr %9, align 8, !tbaa !3
  %19 = getelementptr inbounds nuw %struct.ZSTD_seqSymbol, ptr %18, i32 0, i32 2
  store i8 0, ptr %19, align 1, !tbaa !70
  %20 = load ptr, ptr %9, align 8, !tbaa !3
  %21 = getelementptr inbounds nuw %struct.ZSTD_seqSymbol, ptr %20, i32 0, i32 0
  store i16 0, ptr %21, align 4, !tbaa !71
  %22 = load i8, ptr %6, align 1, !tbaa !15
  %23 = load ptr, ptr %9, align 8, !tbaa !3
  %24 = getelementptr inbounds nuw %struct.ZSTD_seqSymbol, ptr %23, i32 0, i32 1
  store i8 %22, ptr %24, align 2, !tbaa !53
  %25 = load i32, ptr %5, align 4, !tbaa !9
  %26 = load ptr, ptr %9, align 8, !tbaa !3
  %27 = getelementptr inbounds nuw %struct.ZSTD_seqSymbol, ptr %26, i32 0, i32 3
  store i32 %25, ptr %27, align 4, !tbaa !61
  call void @llvm.lifetime.end.p0(i64 8, ptr %9) #14
  call void @llvm.lifetime.end.p0(i64 8, ptr %8) #14
  call void @llvm.lifetime.end.p0(i64 8, ptr %7) #14
  ret void
}

; Function Attrs: nounwind uwtable
define internal i64 @ZSTD_buildSeqTable(ptr noundef %0, ptr noundef %1, i32 noundef %2, i32 noundef %3, i32 noundef %4, ptr noundef %5, i64 noundef %6, ptr noundef %7, ptr noundef %8, ptr noundef %9, i32 noundef %10, i32 noundef %11, i32 noundef %12, ptr noundef %13, i64 noundef %14, i32 noundef %15) #0 {
  %17 = alloca i64, align 8
  %18 = alloca ptr, align 8
  %19 = alloca ptr, align 8
  %20 = alloca i32, align 4
  %21 = alloca i32, align 4
  %22 = alloca i32, align 4
  %23 = alloca ptr, align 8
  %24 = alloca i64, align 8
  %25 = alloca ptr, align 8
  %26 = alloca ptr, align 8
  %27 = alloca ptr, align 8
  %28 = alloca i32, align 4
  %29 = alloca i32, align 4
  %30 = alloca i32, align 4
  %31 = alloca ptr, align 8
  %32 = alloca i64, align 8
  %33 = alloca i32, align 4
  %34 = alloca i32, align 4
  %35 = alloca i32, align 4
  %36 = alloca i8, align 1
  %37 = alloca ptr, align 8
  %38 = alloca i64, align 8
  %39 = alloca ptr, align 8
  %40 = alloca i64, align 8
  %41 = alloca i64, align 8
  %42 = alloca i32, align 4
  %43 = alloca [53 x i16], align 16
  %44 = alloca i64, align 8
  %45 = alloca i32, align 4
  store ptr %0, ptr %18, align 8, !tbaa !3
  store ptr %1, ptr %19, align 8, !tbaa !3
  store i32 %2, ptr %20, align 4, !tbaa !9
  store i32 %3, ptr %21, align 4, !tbaa !9
  store i32 %4, ptr %22, align 4, !tbaa !9
  store ptr %5, ptr %23, align 8, !tbaa !3
  store i64 %6, ptr %24, align 8, !tbaa !7
  store ptr %7, ptr %25, align 8, !tbaa !43
  store ptr %8, ptr %26, align 8, !tbaa !29
  store ptr %9, ptr %27, align 8, !tbaa !3
  store i32 %10, ptr %28, align 4, !tbaa !9
  store i32 %11, ptr %29, align 4, !tbaa !9
  store i32 %12, ptr %30, align 4, !tbaa !9
  store ptr %13, ptr %31, align 8, !tbaa !43
  store i64 %14, ptr %32, align 8, !tbaa !7
  store i32 %15, ptr %33, align 4, !tbaa !9
  %46 = load i32, ptr %20, align 4, !tbaa !9
  switch i32 %46, label %204 [
    i32 1, label %47
    i32 0, label %97
    i32 3, label %100
    i32 2, label %146
  ]

47:                                               ; preds = %16
  br label %48

48:                                               ; preds = %47
  %49 = load i64, ptr %24, align 8, !tbaa !7
  %50 = icmp ne i64 %49, 0
  br i1 %50, label %60, label %51

51:                                               ; preds = %48
  br label %52

52:                                               ; preds = %51
  br label %53

53:                                               ; preds = %52
  br label %54

54:                                               ; preds = %53
  br label %55

55:                                               ; preds = %54
  br label %56

56:                                               ; preds = %55
  br label %57

57:                                               ; preds = %56
  br label %58

58:                                               ; preds = %57
  br label %59

59:                                               ; preds = %58
  store i64 -72, ptr %17, align 8
  br label %215

60:                                               ; preds = %48
  br label %61

61:                                               ; preds = %60
  br label %62

62:                                               ; preds = %61
  %63 = load ptr, ptr %23, align 8, !tbaa !3
  %64 = load i8, ptr %63, align 1, !tbaa !15
  %65 = zext i8 %64 to i32
  %66 = load i32, ptr %21, align 4, !tbaa !9
  %67 = icmp ugt i32 %65, %66
  br i1 %67, label %68, label %77

68:                                               ; preds = %62
  br label %69

69:                                               ; preds = %68
  br label %70

70:                                               ; preds = %69
  br label %71

71:                                               ; preds = %70
  br label %72

72:                                               ; preds = %71
  br label %73

73:                                               ; preds = %72
  br label %74

74:                                               ; preds = %73
  br label %75

75:                                               ; preds = %74
  br label %76

76:                                               ; preds = %75
  store i64 -20, ptr %17, align 8
  br label %215

77:                                               ; preds = %62
  br label %78

78:                                               ; preds = %77
  call void @llvm.lifetime.start.p0(i64 4, ptr %34) #14
  %79 = load ptr, ptr %23, align 8, !tbaa !3
  %80 = load i8, ptr %79, align 1, !tbaa !15
  %81 = zext i8 %80 to i32
  store i32 %81, ptr %34, align 4, !tbaa !9
  call void @llvm.lifetime.start.p0(i64 4, ptr %35) #14
  %82 = load ptr, ptr %25, align 8, !tbaa !43
  %83 = load i32, ptr %34, align 4, !tbaa !9
  %84 = zext i32 %83 to i64
  %85 = getelementptr inbounds nuw i32, ptr %82, i64 %84
  %86 = load i32, ptr %85, align 4, !tbaa !9
  store i32 %86, ptr %35, align 4, !tbaa !9
  call void @llvm.lifetime.start.p0(i64 1, ptr %36) #14
  %87 = load ptr, ptr %26, align 8, !tbaa !29
  %88 = load i32, ptr %34, align 4, !tbaa !9
  %89 = zext i32 %88 to i64
  %90 = getelementptr inbounds nuw i8, ptr %87, i64 %89
  %91 = load i8, ptr %90, align 1, !tbaa !15
  store i8 %91, ptr %36, align 1, !tbaa !15
  %92 = load ptr, ptr %18, align 8, !tbaa !3
  %93 = load i32, ptr %35, align 4, !tbaa !9
  %94 = load i8, ptr %36, align 1, !tbaa !15
  call void @ZSTD_buildSeqTable_rle(ptr noundef %92, i32 noundef %93, i8 noundef zeroext %94)
  call void @llvm.lifetime.end.p0(i64 1, ptr %36) #14
  call void @llvm.lifetime.end.p0(i64 4, ptr %35) #14
  call void @llvm.lifetime.end.p0(i64 4, ptr %34) #14
  %95 = load ptr, ptr %18, align 8, !tbaa !3
  %96 = load ptr, ptr %19, align 8, !tbaa !3
  store ptr %95, ptr %96, align 8, !tbaa !3
  store i64 1, ptr %17, align 8
  br label %215

97:                                               ; preds = %16
  %98 = load ptr, ptr %27, align 8, !tbaa !3
  %99 = load ptr, ptr %19, align 8, !tbaa !3
  store ptr %98, ptr %99, align 8, !tbaa !3
  store i64 0, ptr %17, align 8
  br label %215

100:                                              ; preds = %16
  br label %101

101:                                              ; preds = %100
  %102 = load i32, ptr %28, align 4, !tbaa !9
  %103 = icmp ne i32 %102, 0
  br i1 %103, label %113, label %104

104:                                              ; preds = %101
  br label %105

105:                                              ; preds = %104
  br label %106

106:                                              ; preds = %105
  br label %107

107:                                              ; preds = %106
  br label %108

108:                                              ; preds = %107
  br label %109

109:                                              ; preds = %108
  br label %110

110:                                              ; preds = %109
  br label %111

111:                                              ; preds = %110
  br label %112

112:                                              ; preds = %111
  store i64 -20, ptr %17, align 8
  br label %215

113:                                              ; preds = %101
  br label %114

114:                                              ; preds = %113
  %115 = load i32, ptr %29, align 4, !tbaa !9
  %116 = icmp ne i32 %115, 0
  br i1 %116, label %117, label %145

117:                                              ; preds = %114
  %118 = load i32, ptr %30, align 4, !tbaa !9
  %119 = icmp sgt i32 %118, 24
  br i1 %119, label %120, label %145

120:                                              ; preds = %117
  call void @llvm.lifetime.start.p0(i64 8, ptr %37) #14
  %121 = load ptr, ptr %19, align 8, !tbaa !3
  %122 = load ptr, ptr %121, align 8, !tbaa !3
  store ptr %122, ptr %37, align 8, !tbaa !3
  call void @llvm.lifetime.start.p0(i64 8, ptr %38) #14
  %123 = load i32, ptr %22, align 4, !tbaa !9
  %124 = shl i32 1, %123
  %125 = add nsw i32 1, %124
  %126 = sext i32 %125 to i64
  %127 = mul i64 8, %126
  store i64 %127, ptr %38, align 8, !tbaa !7
  br label %128

128:                                              ; preds = %120
  call void @llvm.lifetime.start.p0(i64 8, ptr %39) #14
  %129 = load ptr, ptr %37, align 8, !tbaa !3
  store ptr %129, ptr %39, align 8, !tbaa !29
  call void @llvm.lifetime.start.p0(i64 8, ptr %40) #14
  %130 = load i64, ptr %38, align 8, !tbaa !7
  store i64 %130, ptr %40, align 8, !tbaa !7
  call void @llvm.lifetime.start.p0(i64 8, ptr %41) #14
  store i64 0, ptr %41, align 8, !tbaa !7
  br label %131

131:                                              ; preds = %139, %128
  %132 = load i64, ptr %41, align 8, !tbaa !7
  %133 = load i64, ptr %40, align 8, !tbaa !7
  %134 = icmp ult i64 %132, %133
  br i1 %134, label %135, label %142

135:                                              ; preds = %131
  %136 = load ptr, ptr %39, align 8, !tbaa !29
  %137 = load i64, ptr %41, align 8, !tbaa !7
  %138 = getelementptr inbounds nuw i8, ptr %136, i64 %137
  call void @llvm.prefetch.p0(ptr %138, i32 0, i32 2, i32 1)
  br label %139

139:                                              ; preds = %135
  %140 = load i64, ptr %41, align 8, !tbaa !7
  %141 = add i64 %140, 64
  store i64 %141, ptr %41, align 8, !tbaa !7
  br label %131, !llvm.loop !45

142:                                              ; preds = %131
  call void @llvm.lifetime.end.p0(i64 8, ptr %41) #14
  call void @llvm.lifetime.end.p0(i64 8, ptr %40) #14
  call void @llvm.lifetime.end.p0(i64 8, ptr %39) #14
  br label %143

143:                                              ; preds = %142
  br label %144

144:                                              ; preds = %143
  call void @llvm.lifetime.end.p0(i64 8, ptr %38) #14
  call void @llvm.lifetime.end.p0(i64 8, ptr %37) #14
  br label %145

145:                                              ; preds = %144, %117, %114
  store i64 0, ptr %17, align 8
  br label %215

146:                                              ; preds = %16
  call void @llvm.lifetime.start.p0(i64 4, ptr %42) #14
  call void @llvm.lifetime.start.p0(i64 106, ptr %43) #14
  call void @llvm.lifetime.start.p0(i64 8, ptr %44) #14
  %147 = getelementptr inbounds [53 x i16], ptr %43, i64 0, i64 0
  %148 = load ptr, ptr %23, align 8, !tbaa !3
  %149 = load i64, ptr %24, align 8, !tbaa !7
  %150 = call i64 @FSE_readNCount(ptr noundef %147, ptr noundef %21, ptr noundef %42, ptr noundef %148, i64 noundef %149)
  store i64 %150, ptr %44, align 8, !tbaa !7
  br label %151

151:                                              ; preds = %146
  %152 = load i64, ptr %44, align 8, !tbaa !7
  %153 = call i32 @ERR_isError(i64 noundef %152)
  %154 = icmp ne i32 %153, 0
  br i1 %154, label %155, label %168

155:                                              ; preds = %151
  br label %156

156:                                              ; preds = %155
  br label %157

157:                                              ; preds = %156
  br label %158

158:                                              ; preds = %157
  br label %159

159:                                              ; preds = %158
  br label %160

160:                                              ; preds = %159
  br label %161

161:                                              ; preds = %160
  br label %162

162:                                              ; preds = %161
  br label %163

163:                                              ; preds = %162
  br label %164

164:                                              ; preds = %163
  br label %165

165:                                              ; preds = %164
  br label %166

166:                                              ; preds = %165
  br label %167

167:                                              ; preds = %166
  store i64 -20, ptr %17, align 8
  store i32 1, ptr %45, align 4
  br label %203

168:                                              ; preds = %151
  br label %169

169:                                              ; preds = %168
  br label %170

170:                                              ; preds = %169
  br label %171

171:                                              ; preds = %170
  %172 = load i32, ptr %42, align 4, !tbaa !9
  %173 = load i32, ptr %22, align 4, !tbaa !9
  %174 = icmp ugt i32 %172, %173
  br i1 %174, label %175, label %188

175:                                              ; preds = %171
  br label %176

176:                                              ; preds = %175
  br label %177

177:                                              ; preds = %176
  br label %178

178:                                              ; preds = %177
  br label %179

179:                                              ; preds = %178
  br label %180

180:                                              ; preds = %179
  br label %181

181:                                              ; preds = %180
  br label %182

182:                                              ; preds = %181
  br label %183

183:                                              ; preds = %182
  br label %184

184:                                              ; preds = %183
  br label %185

185:                                              ; preds = %184
  br label %186

186:                                              ; preds = %185
  br label %187

187:                                              ; preds = %186
  store i64 -20, ptr %17, align 8
  store i32 1, ptr %45, align 4
  br label %203

188:                                              ; preds = %171
  br label %189

189:                                              ; preds = %188
  br label %190

190:                                              ; preds = %189
  %191 = load ptr, ptr %18, align 8, !tbaa !3
  %192 = getelementptr inbounds [53 x i16], ptr %43, i64 0, i64 0
  %193 = load i32, ptr %21, align 4, !tbaa !9
  %194 = load ptr, ptr %25, align 8, !tbaa !43
  %195 = load ptr, ptr %26, align 8, !tbaa !29
  %196 = load i32, ptr %42, align 4, !tbaa !9
  %197 = load ptr, ptr %31, align 8, !tbaa !43
  %198 = load i64, ptr %32, align 8, !tbaa !7
  %199 = load i32, ptr %33, align 4, !tbaa !9
  call void @ZSTD_buildFSETable(ptr noundef %191, ptr noundef %192, i32 noundef %193, ptr noundef %194, ptr noundef %195, i32 noundef %196, ptr noundef %197, i64 noundef %198, i32 noundef %199)
  %200 = load ptr, ptr %18, align 8, !tbaa !3
  %201 = load ptr, ptr %19, align 8, !tbaa !3
  store ptr %200, ptr %201, align 8, !tbaa !3
  %202 = load i64, ptr %44, align 8, !tbaa !7
  store i64 %202, ptr %17, align 8
  store i32 1, ptr %45, align 4
  br label %203

203:                                              ; preds = %190, %187, %167
  call void @llvm.lifetime.end.p0(i64 8, ptr %44) #14
  call void @llvm.lifetime.end.p0(i64 106, ptr %43) #14
  call void @llvm.lifetime.end.p0(i64 4, ptr %42) #14
  br label %215

204:                                              ; preds = %16
  br label %205

205:                                              ; preds = %204
  br label %206

206:                                              ; preds = %205
  br label %207

207:                                              ; preds = %206
  br label %208

208:                                              ; preds = %207
  br label %209

209:                                              ; preds = %208
  br label %210

210:                                              ; preds = %209
  br label %211

211:                                              ; preds = %210
  br label %212

212:                                              ; preds = %211
  br label %213

213:                                              ; preds = %212
  store i64 -1, ptr %17, align 8
  br label %215

214:                                              ; No predecessors!
  br label %215

215:                                              ; preds = %59, %76, %78, %97, %112, %145, %203, %213, %214
  %216 = load i64, ptr %17, align 8
  ret i64 %216
}