; Function Attrs: nounwind uwtable
define internal fastcc range(i64 -20, -71) i64 @ZSTD_buildSeqTable(ptr noundef %0, ptr noundef captures(none) %1, i32 noundef range(i32 0, 4) %2, i32 noundef range(i32 31, 53) %3, i32 noundef range(i32 8, 10) %4, ptr noundef %5, i64 noundef %6, ptr noundef readonly captures(none) %7, ptr noundef readonly captures(none) %8, ptr noundef %9, i32 noundef %10, i32 noundef %11, i32 noundef range(i32 1, 98048) %12, ptr noundef captures(none) %13, i32 noundef %14) unnamed_addr #2 {
  %16 = alloca i32, align 4
  %17 = alloca i32, align 4
  %18 = alloca [53 x i16], align 16
  store i32 %3, ptr %16, align 4, !tbaa !28
  switch i32 %2, label %default.unreachable47 [
    i32 1, label %19
    i32 0, label %35
    i32 3, label %36
    i32 2, label %49
  ]

19:                                               ; preds = %15
  %.not45 = icmp eq i64 %6, 0
  br i1 %.not45, label %.loopexit, label %20

20:                                               ; preds = %19
  %21 = load i8, ptr %5, align 1, !tbaa !7
  %22 = zext i8 %21 to i32
  %23 = icmp samesign ult i32 %3, %22
  br i1 %23, label %.loopexit, label %24

24:                                               ; preds = %20
  %25 = zext i8 %21 to i64
  %26 = getelementptr inbounds nuw i32, ptr %7, i64 %25
  %27 = load i32, ptr %26, align 4, !tbaa !28
  %28 = getelementptr inbounds nuw i8, ptr %8, i64 %25
  %29 = load i8, ptr %28, align 1, !tbaa !7
  %30 = getelementptr inbounds nuw i8, ptr %0, i64 8
  %31 = getelementptr inbounds nuw i8, ptr %0, i64 4
  store i32 0, ptr %31, align 4, !tbaa !57
  store i32 0, ptr %0, align 4, !tbaa !59
  %32 = getelementptr inbounds nuw i8, ptr %0, i64 11
  store i8 0, ptr %32, align 1, !tbaa !52
  store i16 0, ptr %30, align 4, !tbaa !53
  %33 = getelementptr inbounds nuw i8, ptr %0, i64 10
  store i8 %29, ptr %33, align 2, !tbaa !54
  %34 = getelementptr inbounds nuw i8, ptr %0, i64 12
  store i32 %27, ptr %34, align 4, !tbaa !40
  store ptr %0, ptr %1, align 8, !tbaa !60
  br label %.loopexit

35:                                               ; preds = %15
  store ptr %9, ptr %1, align 8, !tbaa !60
  br label %.loopexit

36:                                               ; preds = %15
  %.not44 = icmp eq i32 %10, 0
  br i1 %.not44, label %.loopexit, label %37

37:                                               ; preds = %36
  %38 = icmp ne i32 %11, 0
  %39 = icmp samesign ugt i32 %12, 24
  %or.cond = select i1 %38, i1 %39, i1 false
  br i1 %or.cond, label %40, label %.loopexit

40:                                               ; preds = %37
  %41 = load ptr, ptr %1, align 8, !tbaa !60
  %42 = shl nuw nsw i32 8, %4
  %43 = or disjoint i32 %42, 8
  %44 = zext nneg i32 %43 to i64
  br label %45

45:                                               ; preds = %40, %45
  %.04146 = phi i64 [ 0, %40 ], [ %47, %45 ]
  %46 = getelementptr inbounds nuw i8, ptr %41, i64 %.04146
  tail call void @llvm.prefetch.p0(ptr %46, i32 0, i32 2, i32 1)
  %47 = add nuw nsw i64 %.04146, 64
  %48 = icmp samesign ult i64 %47, %44
  br i1 %48, label %45, label %.loopexit, !llvm.loop !61

49:                                               ; preds = %15
  call void @llvm.lifetime.start.p0(i64 4, ptr nonnull %17) #18
  call void @llvm.lifetime.start.p0(i64 106, ptr nonnull %18) #18
  %50 = call i64 @FSE_readNCount(ptr noundef nonnull %18, ptr noundef nonnull %16, ptr noundef nonnull %17, ptr noundef %5, i64 noundef %6) #18
  %51 = icmp ult i64 %50, -119
  br i1 %51, label %52, label %57

52:                                               ; preds = %49
  %53 = load i32, ptr %17, align 4, !tbaa !28
  %54 = icmp ugt i32 %53, %4
  br i1 %54, label %57, label %55

55:                                               ; preds = %52
  %56 = load i32, ptr %16, align 4, !tbaa !28
  call void @ZSTD_buildFSETable(ptr noundef %0, ptr noundef nonnull %18, i32 noundef %56, ptr noundef %7, ptr noundef %8, i32 noundef %53, ptr noundef %13, i64 poison, i32 noundef %14)
  store ptr %0, ptr %1, align 8, !tbaa !60
  br label %57

57:                                               ; preds = %52, %49, %55
  %.1 = phi i64 [ %50, %55 ], [ -20, %49 ], [ -20, %52 ]
  call void @llvm.lifetime.end.p0(i64 106, ptr nonnull %18) #18
  call void @llvm.lifetime.end.p0(i64 4, ptr nonnull %17) #18
  br label %.loopexit

default.unreachable47:                            ; preds = %15
  unreachable

.loopexit:                                        ; preds = %45, %37, %36, %20, %19, %57, %35, %24
  %.0 = phi i64 [ %.1, %57 ], [ 0, %35 ], [ 1, %24 ], [ -72, %19 ], [ -20, %20 ], [ -20, %36 ], [ 0, %37 ], [ 0, %45 ]
  ret i64 %.0
}